target datalayout = "e-m:e-p270:32:32-p271:32:32-p272:64:64-i64:64-i128:128-f80:128-n8:16:32:64-S128"
target triple = "x86_64-pc-linux-gnu"

%struct.uv__allocator_t = type { ptr, ptr, ptr, ptr }
%struct.uv_loop_s = type { ptr, i32, %struct.uv__queue, %union.anon.2, ptr, i32, i64, i32, %struct.uv__queue, %struct.uv__queue, ptr, i32, i32, %struct.uv__queue, %union.pthread_mutex_t, %struct.uv_async_s, %union.pthread_rwlock_t, ptr, %struct.uv__queue, %struct.uv__queue, %struct.uv__queue, %struct.uv__queue, %struct.uv__queue, ptr, %struct.uv__io_s, i32, %struct.anon, i64, i64, [2 x i32], %struct.uv__io_s, %struct.uv_signal_s, i32, %struct.uv__io_s, ptr, i32 }
%union.anon.2 = type { ptr }
%union.pthread_mutex_t = type { %struct.__pthread_mutex_s }
%struct.__pthread_mutex_s = type { i32, i32, i32, i32, i32, i16, i16, %struct.__pthread_internal_list }
%struct.__pthread_internal_list = type { ptr, ptr }
%struct.uv_async_s = type { ptr, ptr, i32, ptr, %struct.uv__queue, %union.anon.3, ptr, i32, ptr, %struct.uv__queue, i32 }
%union.anon.3 = type { [4 x ptr] }
%union.pthread_rwlock_t = type { %struct.__pthread_rwlock_arch_t }
%struct.__pthread_rwlock_arch_t = type { i32, i32, i32, i32, i32, i32, i32, i32, i8, [7 x i8], i64, i32 }
%struct.uv__queue = type { ptr, ptr }
%struct.anon = type { ptr, i32 }
%struct.uv_signal_s = type { ptr, ptr, i32, ptr, %struct.uv__queue, %union.anon.4, ptr, i32, ptr, i32, %struct.anon.5, i32, i32 }
%union.anon.4 = type { [4 x ptr] }
%struct.anon.5 = type { ptr, ptr, ptr, i32 }
%struct.uv__io_s = type { ptr, %struct.uv__queue, %struct.uv__queue, i32, i32, i32 }
%struct.uv_handle_s = type { ptr, ptr, i32, ptr, %struct.uv__queue, %union.anon.6, ptr, i32 }
%union.anon.6 = type { [4 x ptr] }

@uv__allocator = internal global %struct.uv__allocator_t { ptr @malloc, ptr @realloc, ptr @calloc, ptr @free }, align 8
@default_loop_ptr = internal global ptr null, align 8

; Function Attrs: nounwind uwtable
define hidden void @uv__free(ptr noundef %0) #0 {
  %2 = alloca ptr, align 8
  %3 = alloca i32, align 4
  store ptr %0, ptr %2, align 8
  call void @llvm.lifetime.start.p0(i64 4, ptr %3) #13
  %4 = call ptr @__errno_location() #15
  %5 = load i32, ptr %4, align 4
  store i32 %5, ptr %3, align 4
  %6 = load ptr, ptr getelementptr inbounds nuw (%struct.uv__allocator_t, ptr @uv__allocator, i32 0, i32 3), align 8
  %7 = load ptr, ptr %2, align 8
  call void %6(ptr noundef %7)
  %8 = load i32, ptr %3, align 4
  %9 = call ptr @__errno_location() #15
  store i32 %8, ptr %9, align 4
  call void @llvm.lifetime.end.p0(i64 4, ptr %3) #13
  ret void
}

; Function Attrs: nounwind uwtable
define dso_local i32 @uv_loop_close(ptr noundef %0) #0 {
  %2 = alloca i32, align 4
  %3 = alloca ptr, align 8
  %4 = alloca ptr, align 8
  %5 = alloca ptr, align 8
  %6 = alloca i32, align 4
  store ptr %0, ptr %3, align 8
  call void @llvm.lifetime.start.p0(i64 8, ptr %4) #13
  call void @llvm.lifetime.start.p0(i64 8, ptr %5) #13
  %7 = load ptr, ptr %3, align 8
  %8 = getelementptr inbounds nuw %struct.uv_loop_s, ptr %7, i32 0, i32 3
  %9 = load i32, ptr %8, align 8
  %10 = icmp ugt i32 %9, 0
  br i1 %10, label %11, label %12

11:                                               ; preds = %1
  store i32 -16, ptr %2, align 4
  store i32 1, ptr %6, align 4
  br label %43

12:                                               ; preds = %1
  %13 = load ptr, ptr %3, align 8
  %14 = getelementptr inbounds nuw %struct.uv_loop_s, ptr %13, i32 0, i32 2
  %15 = getelementptr inbounds nuw %struct.uv__queue, ptr %14, i32 0, i32 0
  %16 = load ptr, ptr %15, align 8
  store ptr %16, ptr %4, align 8
  br label %17

17:                                               ; preds = %32, %12
  %18 = load ptr, ptr %4, align 8
  %19 = load ptr, ptr %3, align 8
  %20 = getelementptr inbounds nuw %struct.uv_loop_s, ptr %19, i32 0, i32 2
  %21 = icmp ne ptr %18, %20
  br i1 %21, label %22, label %36

22:                                               ; preds = %17
  %23 = load ptr, ptr %4, align 8
  %24 = getelementptr inbounds i8, ptr %23, i64 -32
  store ptr %24, ptr %5, align 8
  %25 = load ptr, ptr %5, align 8
  %26 = getelementptr inbounds nuw %struct.uv_handle_s, ptr %25, i32 0, i32 7
  %27 = load i32, ptr %26, align 8
  %28 = and i32 %27, 16
  %29 = icmp ne i32 %28, 0
  br i1 %29, label %31, label %30

30:                                               ; preds = %22
  store i32 -16, ptr %2, align 4
  store i32 1, ptr %6, align 4
  br label %43

31:                                               ; preds = %22
  br label %32

32:                                               ; preds = %31
  %33 = load ptr, ptr %4, align 8
  %34 = getelementptr inbounds nuw %struct.uv__queue, ptr %33, i32 0, i32 0
  %35 = load ptr, ptr %34, align 8
  store ptr %35, ptr %4, align 8
  br label %17

36:                                               ; preds = %17
  %37 = load ptr, ptr %3, align 8
  call void @uv__loop_close(ptr noundef %37)
  %38 = load ptr, ptr %3, align 8
  %39 = load ptr, ptr @default_loop_ptr, align 8
  %40 = icmp eq ptr %38, %39
  br i1 %40, label %41, label %42

41:                                               ; preds = %36
  store ptr null, ptr @default_loop_ptr, align 8
  br label %42

42:                                               ; preds = %41, %36
  store i32 0, ptr %2, align 4
  store i32 1, ptr %6, align 4
  br label %43

43:                                               ; preds = %42, %30, %11
  call void @llvm.lifetime.end.p0(i64 8, ptr %5) #13
  call void @llvm.lifetime.end.p0(i64 8, ptr %4) #13
  %44 = load i32, ptr %2, align 4
  ret i32 %44
}

; Function Attrs: nounwind uwtable
define dso_local void @uv_loop_delete(ptr noundef %0) #0 {
  %2 = alloca ptr, align 8
  %3 = alloca ptr, align 8
  %4 = alloca i32, align 4
  store ptr %0, ptr %2, align 8
  call void @llvm.lifetime.start.p0(i64 8, ptr %3) #13
  call void @llvm.lifetime.start.p0(i64 4, ptr %4) #13
  %5 = load ptr, ptr @default_loop_ptr, align 8
  store ptr %5, ptr %3, align 8
  %6 = load ptr, ptr %2, align 8
  %7 = call i32 @uv_loop_close(ptr noundef %6)
  store i32 %7, ptr %4, align 4
  %8 = load ptr, ptr %2, align 8
  %9 = load ptr, ptr %3, align 8
  %10 = icmp ne ptr %8, %9
  br i1 %10, label %11, label %13

11:                                               ; preds = %1
  %12 = load ptr, ptr %2, align 8
  call void @uv__free(ptr noundef %12)
  br label %13

13:                                               ; preds = %11, %1
  call void @llvm.lifetime.end.p0(i64 4, ptr %4) #13
  call void @llvm.lifetime.end.p0(i64 8, ptr %3) #13
  ret void
}