; Function Attrs: nounwind uwtable
define dso_local void @uv_loop_delete(ptr noundef %0) local_unnamed_addr #0 {
  %2 = load ptr, ptr @default_loop_ptr, align 8
  %3 = getelementptr inbounds nuw i8, ptr %0, i64 32
  %4 = load i32, ptr %3, align 8
  %.not.i = icmp eq i32 %4, 0
  br i1 %.not.i, label %5, label %uv_loop_close.exit

5:                                                ; preds = %1
  %6 = getelementptr inbounds nuw i8, ptr %0, i64 16
  br label %7

7:                                                ; preds = %8, %5
  %.09.in.i = phi ptr [ %6, %5 ], [ %.09.i, %8 ]
  %.09.i = load ptr, ptr %.09.in.i, align 8
  %.not10.i = icmp eq ptr %.09.i, %6
  br i1 %.not10.i, label %12, label %8

8:                                                ; preds = %7
  %9 = getelementptr inbounds nuw i8, ptr %.09.i, i64 56
  %10 = load i32, ptr %9, align 8
  %11 = and i32 %10, 16
  %.not11.i = icmp eq i32 %11, 0
  br i1 %.not11.i, label %uv_loop_close.exit, label %7

12:                                               ; preds = %7
  tail call void @uv__loop_close(ptr noundef %0) #26
  %13 = load ptr, ptr @default_loop_ptr, align 8
  %14 = icmp eq ptr %0, %13
  br i1 %14, label %15, label %uv_loop_close.exit

15:                                               ; preds = %12
  store ptr null, ptr @default_loop_ptr, align 8
  br label %uv_loop_close.exit

uv_loop_close.exit:                               ; preds = %8, %1, %12, %15
  %.not = icmp eq ptr %0, %2
  br i1 %.not, label %20, label %16

16:                                               ; preds = %uv_loop_close.exit
  %17 = tail call ptr @__errno_location() #27
  %18 = load i32, ptr %17, align 4
  %19 = load ptr, ptr @uv__allocator.3, align 8
  tail call void %19(ptr noundef %0) #26
  store i32 %18, ptr %17, align 4
  br label %20

20:                                               ; preds = %16, %uv_loop_close.exit
  ret void
}